target datalayout = "e-m:e-p270:32:32-p271:32:32-p272:64:64-i64:64-i128:128-f80:128-n8:16:32:64-S128"
target triple = "x86_64-pc-linux-gnu"

@.str = private unnamed_addr constant [112 x i8] c"generated/home/dtcxzyw/WorkSpace/Projects/compilers/llvm-opt-benchmark/bench/open3d/Open3D/examples/cpp/Log.cpp\00", align 1
@__PRETTY_FUNCTION__.main = private unnamed_addr constant [23 x i8] c"int main(int, char **)\00", align 1
@.str.6 = private unnamed_addr constant [48 x i8] c"This Debug message should be visible, {} {:.2f}\00", align 1
@.str.7 = private unnamed_addr constant [8 x i8] c"format:\00", align 1
@.str.8 = private unnamed_addr constant [47 x i8] c"This Info message should be visible, {} {:.2f}\00", align 1
@.str.9 = private unnamed_addr constant [50 x i8] c"This Warning message should be visible, {} {:.2f}\00", align 1
@.str.10 = private unnamed_addr constant [52 x i8] c"This Debug message should NOT be visible, {} {:.2f}\00", align 1
@_ZTISt9exception = external constant ptr
@.str.11 = private unnamed_addr constant [31 x i8] c"This Error exception is caught\00", align 1
@.str.12 = private unnamed_addr constant [25 x i8] c"Caught exception msg: {}\00", align 1
@.str.13 = private unnamed_addr constant [47 x i8] c"This Info message shall print in regular color\00", align 1
@.str.14 = private unnamed_addr constant [42 x i8] c"This Error message terminates the program\00", align 1

; Function Attrs: mustprogress norecurse ssp uwtable
define dso_local noundef i32 @main(i32 noundef %0, ptr noundef %1) #8 personality ptr @__gxx_personality_v0 {
  %3 = alloca i32, align 4
  %4 = alloca i32, align 4
  %5 = alloca ptr, align 8
  %6 = alloca double, align 8
  %7 = alloca double, align 8
  %8 = alloca double, align 8
  %9 = alloca double, align 8
  %10 = alloca double, align 8
  %11 = alloca double, align 8
  %12 = alloca ptr, align 8
  %13 = alloca i32, align 4
  %14 = alloca ptr, align 8
  %15 = alloca ptr, align 8
  store i32 0, ptr %3, align 4
  store i32 %0, ptr %4, align 4, !tbaa !35
  store ptr %1, ptr %5, align 8, !tbaa !37
  call void @_ZN6open3d7utility17SetVerbosityLevelENS0_14VerbosityLevelE(i32 noundef 3)
  call void @llvm.lifetime.start.p0(i64 8, ptr %6) #7
  store double 4.200100e-01, ptr %6, align 8, !tbaa !40
  call void @_ZN6open3d7utility6Logger9LogDebug_IJRA8_KcdEEEvPS3_iS6_S6_DpOT_(ptr noundef @.str, i32 noundef 18, ptr noundef @__PRETTY_FUNCTION__.main, ptr noundef @.str.6, ptr noundef nonnull align 1 dereferenceable(8) @.str.7, ptr noundef nonnull align 8 dereferenceable(8) %6)
  call void @llvm.lifetime.end.p0(i64 8, ptr %6) #7
  call void @llvm.lifetime.start.p0(i64 8, ptr %7) #7
  store double 4.200100e-01, ptr %7, align 8, !tbaa !40
  call void @_ZN6open3d7utility6Logger8LogInfo_IJRA8_KcdEEEvPS3_iS6_S6_DpOT_(ptr noundef @.str, i32 noundef 20, ptr noundef @__PRETTY_FUNCTION__.main, ptr noundef @.str.8, ptr noundef nonnull align 1 dereferenceable(8) @.str.7, ptr noundef nonnull align 8 dereferenceable(8) %7)
  call void @llvm.lifetime.end.p0(i64 8, ptr %7) #7
  call void @llvm.lifetime.start.p0(i64 8, ptr %8) #7
  store double 4.200100e-01, ptr %8, align 8, !tbaa !40
  call void @_ZN6open3d7utility6Logger11LogWarning_IJRA8_KcdEEEvPS3_iS6_S6_DpOT_(ptr noundef @.str, i32 noundef 22, ptr noundef @__PRETTY_FUNCTION__.main, ptr noundef @.str.9, ptr noundef nonnull align 1 dereferenceable(8) @.str.7, ptr noundef nonnull align 8 dereferenceable(8) %8)
  call void @llvm.lifetime.end.p0(i64 8, ptr %8) #7
  call void @_ZN6open3d7utility17SetVerbosityLevelENS0_14VerbosityLevelE(i32 noundef 2)
  call void @llvm.lifetime.start.p0(i64 8, ptr %9) #7
  store double 4.200100e-01, ptr %9, align 8, !tbaa !40
  call void @_ZN6open3d7utility6Logger9LogDebug_IJRA8_KcdEEEvPS3_iS6_S6_DpOT_(ptr noundef @.str, i32 noundef 27, ptr noundef @__PRETTY_FUNCTION__.main, ptr noundef @.str.10, ptr noundef nonnull align 1 dereferenceable(8) @.str.7, ptr noundef nonnull align 8 dereferenceable(8) %9)
  call void @llvm.lifetime.end.p0(i64 8, ptr %9) #7
  call void @llvm.lifetime.start.p0(i64 8, ptr %10) #7
  store double 4.200100e-01, ptr %10, align 8, !tbaa !40
  call void @_ZN6open3d7utility6Logger8LogInfo_IJRA8_KcdEEEvPS3_iS6_S6_DpOT_(ptr noundef @.str, i32 noundef 29, ptr noundef @__PRETTY_FUNCTION__.main, ptr noundef @.str.8, ptr noundef nonnull align 1 dereferenceable(8) @.str.7, ptr noundef nonnull align 8 dereferenceable(8) %10)
  call void @llvm.lifetime.end.p0(i64 8, ptr %10) #7
  call void @llvm.lifetime.start.p0(i64 8, ptr %11) #7
  store double 4.200100e-01, ptr %11, align 8, !tbaa !40
  call void @_ZN6open3d7utility6Logger11LogWarning_IJRA8_KcdEEEvPS3_iS6_S6_DpOT_(ptr noundef @.str, i32 noundef 31, ptr noundef @__PRETTY_FUNCTION__.main, ptr noundef @.str.9, ptr noundef nonnull align 1 dereferenceable(8) @.str.7, ptr noundef nonnull align 8 dereferenceable(8) %11)
  call void @llvm.lifetime.end.p0(i64 8, ptr %11) #7
  invoke void @_ZN6open3d7utility6Logger9LogError_IJEEEvPKciS4_S4_DpOT_(ptr noundef @.str, i32 noundef 34, ptr noundef @__PRETTY_FUNCTION__.main, ptr noundef @.str.11) #28
          to label %16 unwind label %17

16:                                               ; preds = %2
  unreachable

17:                                               ; preds = %2
  %18 = landingpad { ptr, i32 }
          catch ptr @_ZTISt9exception
  %19 = extractvalue { ptr, i32 } %18, 0
  store ptr %19, ptr %12, align 8
  %20 = extractvalue { ptr, i32 } %18, 1
  store i32 %20, ptr %13, align 4
  br label %21

21:                                               ; preds = %17
  %22 = load i32, ptr %13, align 4
  %23 = call i32 @llvm.eh.typeid.for.p0(ptr @_ZTISt9exception) #7
  %24 = icmp eq i32 %22, %23
  br i1 %24, label %25, label %40

25:                                               ; preds = %21
  call void @llvm.lifetime.start.p0(i64 8, ptr %14) #7
  %26 = load ptr, ptr %12, align 8
  %27 = call ptr @__cxa_begin_catch(ptr %26) #7
  store ptr %27, ptr %14, align 8
  call void @llvm.lifetime.start.p0(i64 8, ptr %15) #7
  %28 = load ptr, ptr %14, align 8, !tbaa !42
  %29 = load ptr, ptr %28, align 8, !tbaa !44
  %30 = getelementptr inbounds ptr, ptr %29, i64 2
  %31 = load ptr, ptr %30, align 8
  %32 = call noundef ptr %31(ptr noundef nonnull align 8 dereferenceable(8) %28) #7
  store ptr %32, ptr %15, align 8, !tbaa !46
  invoke void @_ZN6open3d7utility6Logger8LogInfo_IJPKcEEEvS4_iS4_S4_DpOT_(ptr noundef @.str, i32 noundef 36, ptr noundef @__PRETTY_FUNCTION__.main, ptr noundef @.str.12, ptr noundef nonnull align 8 dereferenceable(8) %15)
          to label %33 unwind label %35

33:                                               ; preds = %25
  call void @llvm.lifetime.end.p0(i64 8, ptr %15) #7
  call void @__cxa_end_catch()
  call void @llvm.lifetime.end.p0(i64 8, ptr %14) #7
  br label %34

34:                                               ; preds = %33
  call void @_ZN6open3d7utility6Logger8LogInfo_IJEEEvPKciS4_S4_DpOT_(ptr noundef @.str, i32 noundef 38, ptr noundef @__PRETTY_FUNCTION__.main, ptr noundef @.str.13)
  call void @_ZN6open3d7utility6Logger9LogError_IJEEEvPKciS4_S4_DpOT_(ptr noundef @.str, i32 noundef 39, ptr noundef @__PRETTY_FUNCTION__.main, ptr noundef @.str.14) #28
  unreachable

35:                                               ; preds = %25
  %36 = landingpad { ptr, i32 }
          cleanup
  %37 = extractvalue { ptr, i32 } %36, 0
  store ptr %37, ptr %12, align 8
  %38 = extractvalue { ptr, i32 } %36, 1
  store i32 %38, ptr %13, align 4
  call void @llvm.lifetime.end.p0(i64 8, ptr %15) #7
  invoke void @__cxa_end_catch()
          to label %39 unwind label %45

39:                                               ; preds = %35
  call void @llvm.lifetime.end.p0(i64 8, ptr %14) #7
  br label %40

40:                                               ; preds = %39, %21
  %41 = load ptr, ptr %12, align 8
  %42 = load i32, ptr %13, align 4
  %43 = insertvalue { ptr, i32 } poison, ptr %41, 0
  %44 = insertvalue { ptr, i32 } %43, i32 %42, 1
  resume { ptr, i32 } %44

45:                                               ; preds = %35
  %46 = landingpad { ptr, i32 }
          catch ptr null
  %47 = extractvalue { ptr, i32 } %46, 0
  call void @__clang_call_terminate(ptr %47) #29
  unreachable
}