; Function Attrs: mustprogress norecurse noreturn ssp uwtable
define dso_local noundef i32 @main(i32 noundef %0, ptr noundef readnone captures(none) %1) local_unnamed_addr #4 personality ptr @__gxx_personality_v0 {
  %3 = alloca double, align 8
  %4 = alloca double, align 8
  %5 = alloca double, align 8
  %6 = alloca double, align 8
  %7 = alloca double, align 8
  %8 = alloca double, align 8
  %9 = alloca ptr, align 8
  tail call void @_ZN6open3d7utility17SetVerbosityLevelENS0_14VerbosityLevelE(i32 noundef 3)
  call void @llvm.lifetime.start.p0(i64 8, ptr nonnull %3) #32
  store double 4.200100e-01, ptr %3, align 8, !tbaa !21
  call void @_ZN6open3d7utility6Logger9LogDebug_IJRA8_KcdEEEvPS3_iS6_S6_DpOT_(ptr noundef nonnull @.str, i32 noundef 18, ptr noundef nonnull @__PRETTY_FUNCTION__.main, ptr noundef nonnull @.str.6, ptr noundef nonnull align 1 dereferenceable(8) @.str.7, ptr noundef nonnull align 8 dereferenceable(8) %3)
  call void @llvm.lifetime.end.p0(i64 8, ptr nonnull %3) #32
  call void @llvm.lifetime.start.p0(i64 8, ptr nonnull %4) #32
  store double 4.200100e-01, ptr %4, align 8, !tbaa !21
  call void @_ZN6open3d7utility6Logger8LogInfo_IJRA8_KcdEEEvPS3_iS6_S6_DpOT_(ptr noundef nonnull @.str, i32 noundef 20, ptr noundef nonnull @__PRETTY_FUNCTION__.main, ptr noundef nonnull @.str.8, ptr noundef nonnull align 1 dereferenceable(8) @.str.7, ptr noundef nonnull align 8 dereferenceable(8) %4)
  call void @llvm.lifetime.end.p0(i64 8, ptr nonnull %4) #32
  call void @llvm.lifetime.start.p0(i64 8, ptr nonnull %5) #32
  store double 4.200100e-01, ptr %5, align 8, !tbaa !21
  call void @_ZN6open3d7utility6Logger11LogWarning_IJRA8_KcdEEEvPS3_iS6_S6_DpOT_(ptr noundef nonnull @.str, i32 noundef 22, ptr noundef nonnull @__PRETTY_FUNCTION__.main, ptr noundef nonnull @.str.9, ptr noundef nonnull align 1 dereferenceable(8) @.str.7, ptr noundef nonnull align 8 dereferenceable(8) %5)
  call void @llvm.lifetime.end.p0(i64 8, ptr nonnull %5) #32
  call void @_ZN6open3d7utility17SetVerbosityLevelENS0_14VerbosityLevelE(i32 noundef 2)
  call void @llvm.lifetime.start.p0(i64 8, ptr nonnull %6) #32
  store double 4.200100e-01, ptr %6, align 8, !tbaa !21
  call void @_ZN6open3d7utility6Logger9LogDebug_IJRA8_KcdEEEvPS3_iS6_S6_DpOT_(ptr noundef nonnull @.str, i32 noundef 27, ptr noundef nonnull @__PRETTY_FUNCTION__.main, ptr noundef nonnull @.str.10, ptr noundef nonnull align 1 dereferenceable(8) @.str.7, ptr noundef nonnull align 8 dereferenceable(8) %6)
  call void @llvm.lifetime.end.p0(i64 8, ptr nonnull %6) #32
  call void @llvm.lifetime.start.p0(i64 8, ptr nonnull %7) #32
  store double 4.200100e-01, ptr %7, align 8, !tbaa !21
  call void @_ZN6open3d7utility6Logger8LogInfo_IJRA8_KcdEEEvPS3_iS6_S6_DpOT_(ptr noundef nonnull @.str, i32 noundef 29, ptr noundef nonnull @__PRETTY_FUNCTION__.main, ptr noundef nonnull @.str.8, ptr noundef nonnull align 1 dereferenceable(8) @.str.7, ptr noundef nonnull align 8 dereferenceable(8) %7)
  call void @llvm.lifetime.end.p0(i64 8, ptr nonnull %7) #32
  call void @llvm.lifetime.start.p0(i64 8, ptr nonnull %8) #32
  store double 4.200100e-01, ptr %8, align 8, !tbaa !21
  call void @_ZN6open3d7utility6Logger11LogWarning_IJRA8_KcdEEEvPS3_iS6_S6_DpOT_(ptr noundef nonnull @.str, i32 noundef 31, ptr noundef nonnull @__PRETTY_FUNCTION__.main, ptr noundef nonnull @.str.9, ptr noundef nonnull align 1 dereferenceable(8) @.str.7, ptr noundef nonnull align 8 dereferenceable(8) %8)
  call void @llvm.lifetime.end.p0(i64 8, ptr nonnull %8) #32
  invoke void @_ZN6open3d7utility6Logger9LogError_IJEEEvPKciS4_S4_DpOT_(ptr noundef nonnull @.str, i32 noundef 34, ptr noundef nonnull @__PRETTY_FUNCTION__.main, ptr noundef nonnull @.str.11) #33
          to label %10 unwind label %11

10:                                               ; preds = %2
  unreachable

11:                                               ; preds = %2
  %12 = landingpad { ptr, i32 }
          catch ptr @_ZTISt9exception
  %13 = extractvalue { ptr, i32 } %12, 1
  %14 = call i32 @llvm.eh.typeid.for.p0(ptr nonnull @_ZTISt9exception) #32
  %15 = icmp eq i32 %13, %14
  br i1 %15, label %16, label %26

16:                                               ; preds = %11
  %17 = extractvalue { ptr, i32 } %12, 0
  %18 = call ptr @__cxa_begin_catch(ptr %17) #32
  call void @llvm.lifetime.start.p0(i64 8, ptr nonnull %9) #32
  %19 = load ptr, ptr %18, align 8, !tbaa !23
  %20 = getelementptr inbounds nuw i8, ptr %19, i64 16
  %21 = load ptr, ptr %20, align 8
  %22 = call noundef ptr %21(ptr noundef nonnull align 8 dereferenceable(8) %18) #32
  store ptr %22, ptr %9, align 8, !tbaa !25
  invoke void @_ZN6open3d7utility6Logger8LogInfo_IJPKcEEEvS4_iS4_S4_DpOT_(ptr noundef nonnull @.str, i32 noundef 36, ptr noundef nonnull @__PRETTY_FUNCTION__.main, ptr noundef nonnull @.str.12, ptr noundef nonnull align 8 dereferenceable(8) %9)
          to label %23 unwind label %24

23:                                               ; preds = %16
  call void @llvm.lifetime.end.p0(i64 8, ptr nonnull %9) #32
  call void @__cxa_end_catch()
  call void @_ZN6open3d7utility6Logger8LogInfo_IJEEEvPKciS4_S4_DpOT_(ptr noundef nonnull @.str, i32 noundef 38, ptr noundef nonnull @__PRETTY_FUNCTION__.main, ptr noundef nonnull @.str.13)
  call void @_ZN6open3d7utility6Logger9LogError_IJEEEvPKciS4_S4_DpOT_(ptr noundef nonnull @.str, i32 noundef 39, ptr noundef nonnull @__PRETTY_FUNCTION__.main, ptr noundef nonnull @.str.14) #33
  unreachable

24:                                               ; preds = %16
  %25 = landingpad { ptr, i32 }
          cleanup
  call void @llvm.lifetime.end.p0(i64 8, ptr nonnull %9) #32
  invoke void @__cxa_end_catch()
          to label %26 unwind label %27

26:                                               ; preds = %24, %11
  %.merged = phi { ptr, i32 } [ %12, %11 ], [ %25, %24 ]
  resume { ptr, i32 } %.merged

27:                                               ; preds = %24
  %28 = landingpad { ptr, i32 }
          catch ptr null
  %29 = extractvalue { ptr, i32 } %28, 0
  call void @__clang_call_terminate(ptr %29) #34
  unreachable
}